target datalayout = "e-m:e-p270:32:32-p271:32:32-p272:64:64-i64:64-i128:128-f80:128-n8:16:32:64-S128"
target triple = "x86_64-pc-linux-gnu"

%"class.absl::lts_20240722::log_internal::Voidify" = type { i8 }
%"class.absl::lts_20240722::log_internal::LogMessage" = type { %"class.absl::lts_20240722::base_internal::ErrnoSaver", %"class.std::unique_ptr" }
%"class.absl::lts_20240722::base_internal::ErrnoSaver" = type { i32 }
%"class.std::unique_ptr" = type { %"struct.std::__uniq_ptr_data" }
%"struct.std::__uniq_ptr_data" = type { %"class.std::__uniq_ptr_impl" }
%"class.std::__uniq_ptr_impl" = type { %"class.std::tuple" }
%"class.std::tuple" = type { %"struct.std::_Tuple_impl" }
%"struct.std::_Tuple_impl" = type { %"struct.std::_Head_base.1" }
%"struct.std::_Head_base.1" = type { ptr }
%"class.std::basic_string_view" = type { i64, ptr }
%struct.grpc_slice_buffer = type { ptr, ptr, i64, i64, i64, [6 x %struct.grpc_slice] }
%struct.grpc_slice = type { ptr, %"union.grpc_slice::grpc_slice_data" }
%"union.grpc_slice::grpc_slice_data" = type { %"struct.grpc_slice::grpc_slice_data::grpc_slice_refcounted", [8 x i8] }
%"struct.grpc_slice::grpc_slice_data::grpc_slice_refcounted" = type { i64, ptr }
%struct.alts_grpc_record_protocol = type { ptr, ptr, %struct.grpc_slice_buffer, ptr, i64, i64, ptr, i64 }

@.str = private unnamed_addr constant [167 x i8] c"generated/home/dtcxzyw/WorkSpace/Projects/compilers/llvm-opt-benchmark/bench/grpc/grpc/src/core/tsi/alts/zero_copy_frame_protector/alts_grpc_record_protocol_common.cc\00", align 1
@.str.5 = private unnamed_addr constant [61 x i8] c"Invalid nullptr arguments to alts_grpc_record_protocol init.\00", align 1
@.str.6 = private unnamed_addr constant [46 x i8] c"Failed to create alts_iovec_record_protocol, \00", align 1

; Function Attrs: noinline noreturn nounwind uwtable
define linkonce_odr hidden void @__clang_call_terminate(ptr noundef %0) #16 comdat {
  %2 = call ptr @__cxa_begin_catch(ptr %0) #3
  call void @_ZSt9terminatev() #19
  unreachable
}

; Function Attrs: mustprogress nounwind uwtable
define linkonce_odr noundef i64 @_ZNSt11char_traitsIcE6lengthEPKc(ptr noundef %0) #7 comdat align 2 {
  %2 = alloca ptr, align 8
  store ptr %0, ptr %2, align 8, !tbaa !41
  %3 = load ptr, ptr %2, align 8, !tbaa !41
  %4 = call i64 @strlen(ptr noundef %3) #3
  ret i64 %4
}

; Function Attrs: mustprogress nounwind uwtable
define linkonce_odr void @_ZNSt17basic_string_viewIcSt11char_traitsIcEEC2EPKc(ptr noundef nonnull align 8 dereferenceable(16) %0, ptr noundef nonnull %1) unnamed_addr #7 comdat align 2 personality ptr @__gxx_personality_v0 {
  %3 = alloca ptr, align 8
  %4 = alloca ptr, align 8
  store ptr %0, ptr %3, align 8, !tbaa !39
  store ptr %1, ptr %4, align 8, !tbaa !41
  %5 = load ptr, ptr %3, align 8
  %6 = getelementptr inbounds nuw %"class.std::basic_string_view", ptr %5, i32 0, i32 0
  %7 = load ptr, ptr %4, align 8, !tbaa !41
  %8 = invoke noundef i64 @_ZNSt11char_traitsIcE6lengthEPKc(ptr noundef %7)
          to label %9 unwind label %12

9:                                                ; preds = %2
  store i64 %8, ptr %6, align 8, !tbaa !42
  %10 = getelementptr inbounds nuw %"class.std::basic_string_view", ptr %5, i32 0, i32 1
  %11 = load ptr, ptr %4, align 8, !tbaa !41
  store ptr %11, ptr %10, align 8, !tbaa !44
  ret void

12:                                               ; preds = %2
  %13 = landingpad { ptr, i32 }
          catch ptr null
  %14 = extractvalue { ptr, i32 } %13, 0
  call void @__clang_call_terminate(ptr %14) #19
  unreachable
}

; Function Attrs: mustprogress uwtable
define linkonce_odr noundef nonnull align 8 dereferenceable(16) ptr @_ZN4absl12lts_2024072212log_internal10LogMessagelsILi46EEERS2_RAT__Kc(ptr noundef nonnull align 8 dereferenceable(16) %0, ptr noundef nonnull align 1 dereferenceable(46) %1) #4 comdat align 2 {
  %3 = alloca ptr, align 8
  %4 = alloca ptr, align 8
  %5 = alloca %"class.std::basic_string_view", align 8
  store ptr %0, ptr %3, align 8, !tbaa !37
  store ptr %1, ptr %4, align 8, !tbaa !41
  %6 = load ptr, ptr %3, align 8
  %7 = load ptr, ptr %4, align 8, !tbaa !41
  %8 = getelementptr inbounds [46 x i8], ptr %7, i64 0, i64 0
  call void @_ZNSt17basic_string_viewIcSt11char_traitsIcEEC2EPKc(ptr noundef nonnull align 8 dereferenceable(16) %5, ptr noundef %8) #3
  %9 = getelementptr inbounds nuw { i64, ptr }, ptr %5, i32 0, i32 0
  %10 = load i64, ptr %9, align 8
  %11 = getelementptr inbounds nuw { i64, ptr }, ptr %5, i32 0, i32 1
  %12 = load ptr, ptr %11, align 8
  call void @_ZN4absl12lts_2024072212log_internal10LogMessage19CopyToEncodedBufferILNS2_10StringTypeE0EEEvSt17basic_string_viewIcSt11char_traitsIcEE(ptr noundef nonnull align 8 dereferenceable(16) %6, i64 %10, ptr %12)
  ret ptr %6
}

; Function Attrs: mustprogress nounwind uwtable
define linkonce_odr void @_ZNKO4absl12lts_2024072212log_internal7VoidifyaaINS1_10LogMessageEEEvRKT_(ptr noundef nonnull align 1 dereferenceable(1) %0, ptr noundef nonnull align 8 dereferenceable(16) %1) #7 comdat align 2 {
  %3 = alloca ptr, align 8
  %4 = alloca ptr, align 8
  store ptr %0, ptr %3, align 8, !tbaa !35
  store ptr %1, ptr %4, align 8, !tbaa !37
  ret void
}

; Function Attrs: mustprogress uwtable
define linkonce_odr noundef nonnull align 8 dereferenceable(16) ptr @_ZN4absl12lts_2024072212log_internal10LogMessagelsILi61EEERS2_RAT__Kc(ptr noundef nonnull align 8 dereferenceable(16) %0, ptr noundef nonnull align 1 dereferenceable(61) %1) #4 comdat align 2 {
  %3 = alloca ptr, align 8
  %4 = alloca ptr, align 8
  %5 = alloca %"class.std::basic_string_view", align 8
  store ptr %0, ptr %3, align 8, !tbaa !37
  store ptr %1, ptr %4, align 8, !tbaa !41
  %6 = load ptr, ptr %3, align 8
  %7 = load ptr, ptr %4, align 8, !tbaa !41
  %8 = getelementptr inbounds [61 x i8], ptr %7, i64 0, i64 0
  call void @_ZNSt17basic_string_viewIcSt11char_traitsIcEEC2EPKc(ptr noundef nonnull align 8 dereferenceable(16) %5, ptr noundef %8) #3
  %9 = getelementptr inbounds nuw { i64, ptr }, ptr %5, i32 0, i32 0
  %10 = load i64, ptr %9, align 8
  %11 = getelementptr inbounds nuw { i64, ptr }, ptr %5, i32 0, i32 1
  %12 = load ptr, ptr %11, align 8
  call void @_ZN4absl12lts_2024072212log_internal10LogMessage19CopyToEncodedBufferILNS2_10StringTypeE0EEEvSt17basic_string_viewIcSt11char_traitsIcEE(ptr noundef nonnull align 8 dereferenceable(16) %6, i64 %10, ptr %12)
  ret ptr %6
}

; Function Attrs: mustprogress nounwind uwtable
define linkonce_odr noundef nonnull align 8 dereferenceable(16) ptr @_ZN4absl12lts_2024072212log_internal10LogMessage14InternalStreamEv(ptr noundef nonnull align 8 dereferenceable(16) %0) #7 comdat align 2 {
  %2 = alloca ptr, align 8
  store ptr %0, ptr %2, align 8, !tbaa !37
  %3 = load ptr, ptr %2, align 8
  ret ptr %3
}

; Function Attrs: mustprogress uwtable
define noundef i32 @_Z30alts_grpc_record_protocol_initP25alts_grpc_record_protocolP17gsec_aead_cryptermbbb(ptr noundef %0, ptr noundef %1, i64 noundef %2, i1 noundef zeroext %3, i1 noundef zeroext %4, i1 noundef zeroext %5) #4 personality ptr @__gxx_personality_v0 {
  %7 = alloca i32, align 4
  %8 = alloca ptr, align 8
  %9 = alloca ptr, align 8
  %10 = alloca i64, align 8
  %11 = alloca i8, align 1
  %12 = alloca i8, align 1
  %13 = alloca i8, align 1
  %14 = alloca %"class.absl::lts_20240722::log_internal::Voidify", align 1
  %15 = alloca %"class.absl::lts_20240722::log_internal::LogMessage", align 8
  %16 = alloca ptr, align 8
  %17 = alloca i32, align 4
  %18 = alloca ptr, align 8
  %19 = alloca i32, align 4
  %20 = alloca %"class.absl::lts_20240722::log_internal::Voidify", align 1
  %21 = alloca %"class.absl::lts_20240722::log_internal::LogMessage", align 8
  %22 = alloca i32, align 4
  store ptr %0, ptr %8, align 8, !tbaa !3
  store ptr %1, ptr %9, align 8, !tbaa !58
  store i64 %2, ptr %10, align 8, !tbaa !14
  %23 = zext i1 %3 to i8
  store i8 %23, ptr %11, align 1, !tbaa !60
  %24 = zext i1 %4 to i8
  store i8 %24, ptr %12, align 1, !tbaa !60
  %25 = zext i1 %5 to i8
  store i8 %25, ptr %13, align 1, !tbaa !60
  %26 = load ptr, ptr %8, align 8, !tbaa !3
  %27 = icmp eq ptr %26, null
  br i1 %27, label %31, label %28

28:                                               ; preds = %6
  %29 = load ptr, ptr %9, align 8, !tbaa !58
  %30 = icmp eq ptr %29, null
  br i1 %30, label %31, label %41

31:                                               ; preds = %28, %6
  call void @llvm.lifetime.start.p0(i64 1, ptr %14) #3
  call void @llvm.lifetime.start.p0(i64 16, ptr %15) #3
  call void @_ZN4absl12lts_2024072212log_internal10LogMessageC1EPKciNS2_8ErrorTagE(ptr noundef nonnull align 8 dereferenceable(16) %15, ptr noundef @.str, i32 noundef 97) #18
  %32 = invoke noundef nonnull align 8 dereferenceable(16) ptr @_ZN4absl12lts_2024072212log_internal10LogMessage14InternalStreamEv(ptr noundef nonnull align 8 dereferenceable(16) %15)
          to label %33 unwind label %37

33:                                               ; preds = %31
  %34 = invoke noundef nonnull align 8 dereferenceable(16) ptr @_ZN4absl12lts_2024072212log_internal10LogMessagelsILi61EEERS2_RAT__Kc(ptr noundef nonnull align 8 dereferenceable(16) %32, ptr noundef nonnull align 1 dereferenceable(61) @.str.5)
          to label %35 unwind label %37

35:                                               ; preds = %33
  invoke void @_ZNKO4absl12lts_2024072212log_internal7VoidifyaaINS1_10LogMessageEEEvRKT_(ptr noundef nonnull align 1 dereferenceable(1) %14, ptr noundef nonnull align 8 dereferenceable(16) %34)
          to label %36 unwind label %37

36:                                               ; preds = %35
  call void @_ZN4absl12lts_2024072212log_internal10LogMessageD1Ev(ptr noundef nonnull align 8 dereferenceable(16) %15) #20
  call void @llvm.lifetime.end.p0(i64 16, ptr %15) #3
  call void @llvm.lifetime.end.p0(i64 1, ptr %14) #3
  store i32 2, ptr %7, align 4
  br label %96

37:                                               ; preds = %35, %33, %31
  %38 = landingpad { ptr, i32 }
          cleanup
  %39 = extractvalue { ptr, i32 } %38, 0
  store ptr %39, ptr %16, align 8
  %40 = extractvalue { ptr, i32 } %38, 1
  store i32 %40, ptr %17, align 4
  call void @_ZN4absl12lts_2024072212log_internal10LogMessageD1Ev(ptr noundef nonnull align 8 dereferenceable(16) %15) #20
  call void @llvm.lifetime.end.p0(i64 16, ptr %15) #3
  call void @llvm.lifetime.end.p0(i64 1, ptr %14) #3
  br label %98

41:                                               ; preds = %28
  call void @llvm.lifetime.start.p0(i64 8, ptr %18) #3
  store ptr null, ptr %18, align 8, !tbaa !41
  call void @llvm.lifetime.start.p0(i64 4, ptr %19) #3
  %42 = load ptr, ptr %9, align 8, !tbaa !58
  %43 = load i64, ptr %10, align 8, !tbaa !14
  %44 = load i8, ptr %11, align 1, !tbaa !60, !range !62, !noundef !63
  %45 = trunc i8 %44 to i1
  %46 = load i8, ptr %12, align 1, !tbaa !60, !range !62, !noundef !63
  %47 = trunc i8 %46 to i1
  %48 = load i8, ptr %13, align 1, !tbaa !60, !range !62, !noundef !63
  %49 = trunc i8 %48 to i1
  %50 = load ptr, ptr %8, align 8, !tbaa !3
  %51 = getelementptr inbounds nuw %struct.alts_grpc_record_protocol, ptr %50, i32 0, i32 1
  %52 = call noundef i32 @_Z33alts_iovec_record_protocol_createP17gsec_aead_cryptermbbbPP26alts_iovec_record_protocolPPc(ptr noundef %42, i64 noundef %43, i1 noundef zeroext %45, i1 noundef zeroext %47, i1 noundef zeroext %49, ptr noundef %51, ptr noundef %18)
  store i32 %52, ptr %19, align 4, !tbaa !64
  %53 = load i32, ptr %19, align 4, !tbaa !64
  %54 = icmp ne i32 %53, 0
  br i1 %54, label %55, label %68

55:                                               ; preds = %41
  call void @llvm.lifetime.start.p0(i64 1, ptr %20) #3
  call void @llvm.lifetime.start.p0(i64 16, ptr %21) #3
  call void @_ZN4absl12lts_2024072212log_internal10LogMessageC1EPKciNS2_8ErrorTagE(ptr noundef nonnull align 8 dereferenceable(16) %21, ptr noundef @.str, i32 noundef 107) #18
  %56 = invoke noundef nonnull align 8 dereferenceable(16) ptr @_ZN4absl12lts_2024072212log_internal10LogMessage14InternalStreamEv(ptr noundef nonnull align 8 dereferenceable(16) %21)
          to label %57 unwind label %64

57:                                               ; preds = %55
  %58 = invoke noundef nonnull align 8 dereferenceable(16) ptr @_ZN4absl12lts_2024072212log_internal10LogMessagelsILi46EEERS2_RAT__Kc(ptr noundef nonnull align 8 dereferenceable(16) %56, ptr noundef nonnull align 1 dereferenceable(46) @.str.6)
          to label %59 unwind label %64

59:                                               ; preds = %57
  %60 = invoke noundef nonnull align 8 dereferenceable(16) ptr @_ZN4absl12lts_2024072212log_internal10LogMessagelsIPcTnNSt9enable_ifIXntsr4absl16HasAbslStringifyIT_EE5valueEiE4typeELi0EEERS2_RKS6_(ptr noundef nonnull align 8 dereferenceable(16) %58, ptr noundef nonnull align 8 dereferenceable(8) %18)
          to label %61 unwind label %64

61:                                               ; preds = %59
  invoke void @_ZNKO4absl12lts_2024072212log_internal7VoidifyaaINS1_10LogMessageEEEvRKT_(ptr noundef nonnull align 1 dereferenceable(1) %20, ptr noundef nonnull align 8 dereferenceable(16) %60)
          to label %62 unwind label %64

62:                                               ; preds = %61
  call void @_ZN4absl12lts_2024072212log_internal10LogMessageD1Ev(ptr noundef nonnull align 8 dereferenceable(16) %21) #20
  call void @llvm.lifetime.end.p0(i64 16, ptr %21) #3
  call void @llvm.lifetime.end.p0(i64 1, ptr %20) #3
  %63 = load ptr, ptr %18, align 8, !tbaa !41
  call void @gpr_free(ptr noundef %63)
  store i32 7, ptr %7, align 4
  store i32 1, ptr %22, align 4
  br label %95

64:                                               ; preds = %61, %59, %57, %55
  %65 = landingpad { ptr, i32 }
          cleanup
  %66 = extractvalue { ptr, i32 } %65, 0
  store ptr %66, ptr %16, align 8
  %67 = extractvalue { ptr, i32 } %65, 1
  store i32 %67, ptr %17, align 4
  call void @_ZN4absl12lts_2024072212log_internal10LogMessageD1Ev(ptr noundef nonnull align 8 dereferenceable(16) %21) #20
  call void @llvm.lifetime.end.p0(i64 16, ptr %21) #3
  call void @llvm.lifetime.end.p0(i64 1, ptr %20) #3
  call void @llvm.lifetime.end.p0(i64 4, ptr %19) #3
  call void @llvm.lifetime.end.p0(i64 8, ptr %18) #3
  br label %98

68:                                               ; preds = %41
  %69 = load ptr, ptr %8, align 8, !tbaa !3
  %70 = getelementptr inbounds nuw %struct.alts_grpc_record_protocol, ptr %69, i32 0, i32 2
  call void @grpc_slice_buffer_init(ptr noundef %70)
  %71 = call noundef i64 @_Z44alts_iovec_record_protocol_get_header_lengthv()
  %72 = load ptr, ptr %8, align 8, !tbaa !3
  %73 = getelementptr inbounds nuw %struct.alts_grpc_record_protocol, ptr %72, i32 0, i32 4
  store i64 %71, ptr %73, align 8, !tbaa !54
  %74 = load ptr, ptr %8, align 8, !tbaa !3
  %75 = getelementptr inbounds nuw %struct.alts_grpc_record_protocol, ptr %74, i32 0, i32 4
  %76 = load i64, ptr %75, align 8, !tbaa !54
  %77 = call ptr @gpr_malloc(i64 noundef %76)
  %78 = load ptr, ptr %8, align 8, !tbaa !3
  %79 = getelementptr inbounds nuw %struct.alts_grpc_record_protocol, ptr %78, i32 0, i32 3
  store ptr %77, ptr %79, align 8, !tbaa !57
  %80 = load ptr, ptr %8, align 8, !tbaa !3
  %81 = getelementptr inbounds nuw %struct.alts_grpc_record_protocol, ptr %80, i32 0, i32 1
  %82 = load ptr, ptr %81, align 8, !tbaa !66
  %83 = call noundef i64 @_Z41alts_iovec_record_protocol_get_tag_lengthPK26alts_iovec_record_protocol(ptr noundef %82)
  %84 = load ptr, ptr %8, align 8, !tbaa !3
  %85 = getelementptr inbounds nuw %struct.alts_grpc_record_protocol, ptr %84, i32 0, i32 5
  store i64 %83, ptr %85, align 8, !tbaa !67
  %86 = load ptr, ptr %8, align 8, !tbaa !3
  %87 = getelementptr inbounds nuw %struct.alts_grpc_record_protocol, ptr %86, i32 0, i32 7
  store i64 8, ptr %87, align 8, !tbaa !50
  %88 = load ptr, ptr %8, align 8, !tbaa !3
  %89 = getelementptr inbounds nuw %struct.alts_grpc_record_protocol, ptr %88, i32 0, i32 7
  %90 = load i64, ptr %89, align 8, !tbaa !50
  %91 = mul i64 %90, 16
  %92 = call ptr @gpr_malloc(i64 noundef %91)
  %93 = load ptr, ptr %8, align 8, !tbaa !3
  %94 = getelementptr inbounds nuw %struct.alts_grpc_record_protocol, ptr %93, i32 0, i32 6
  store ptr %92, ptr %94, align 8, !tbaa !24
  store i32 0, ptr %7, align 4
  store i32 1, ptr %22, align 4
  br label %95

95:                                               ; preds = %68, %62
  call void @llvm.lifetime.end.p0(i64 4, ptr %19) #3
  call void @llvm.lifetime.end.p0(i64 8, ptr %18) #3
  br label %96

96:                                               ; preds = %95, %36
  %97 = load i32, ptr %7, align 4
  ret i32 %97

98:                                               ; preds = %64, %37
  %99 = load ptr, ptr %16, align 8
  %100 = load i32, ptr %17, align 4
  %101 = insertvalue { ptr, i32 } poison, ptr %99, 0
  %102 = insertvalue { ptr, i32 } %101, i32 %100, 1
  resume { ptr, i32 } %102
}