; Function Attrs: mustprogress uwtable
define noundef range(i32 0, 8) i32 @_Z30alts_grpc_record_protocol_initP25alts_grpc_record_protocolP17gsec_aead_cryptermbbb(ptr noundef %0, ptr noundef %1, i64 noundef %2, i1 noundef zeroext %3, i1 noundef zeroext %4, i1 noundef zeroext %5) local_unnamed_addr #3 personality ptr @__gxx_personality_v0 {
  %7 = alloca %"class.absl::lts_20240722::log_internal::LogMessage", align 8
  %8 = alloca ptr, align 8
  %9 = alloca %"class.absl::lts_20240722::log_internal::LogMessage", align 8
  %10 = icmp eq ptr %0, null
  %11 = icmp eq ptr %1, null
  %or.cond = or i1 %10, %11
  br i1 %or.cond, label %12, label %15

12:                                               ; preds = %6
  call void @llvm.lifetime.start.p0(i64 16, ptr nonnull %7) #16
  call void @_ZN4absl12lts_2024072212log_internal10LogMessageC1EPKciNS2_8ErrorTagE(ptr noundef nonnull align 8 dereferenceable(16) %7, ptr noundef nonnull @.str, i32 noundef 97) #17
  invoke void @_ZN4absl12lts_2024072212log_internal10LogMessage19CopyToEncodedBufferILNS2_10StringTypeE0EEEvSt17basic_string_viewIcSt11char_traitsIcEE(ptr noundef nonnull align 8 dereferenceable(16) %7, i64 60, ptr nonnull @.str.5)
          to label %_ZN4absl12lts_2024072212log_internal10LogMessagelsILi61EEERS2_RAT__Kc.exit unwind label %13

_ZN4absl12lts_2024072212log_internal10LogMessagelsILi61EEERS2_RAT__Kc.exit: ; preds = %12
  call void @_ZN4absl12lts_2024072212log_internal10LogMessageD1Ev(ptr noundef nonnull align 8 dereferenceable(16) %7) #19
  call void @llvm.lifetime.end.p0(i64 16, ptr nonnull %7) #16
  br label %37

13:                                               ; preds = %12
  %14 = landingpad { ptr, i32 }
          cleanup
  call void @_ZN4absl12lts_2024072212log_internal10LogMessageD1Ev(ptr noundef nonnull align 8 dereferenceable(16) %7) #19
  call void @llvm.lifetime.end.p0(i64 16, ptr nonnull %7) #16
  br label %38

15:                                               ; preds = %6
  call void @llvm.lifetime.start.p0(i64 8, ptr nonnull %8) #16
  store ptr null, ptr %8, align 8, !tbaa !37
  %16 = getelementptr inbounds nuw i8, ptr %0, i64 8
  %17 = call noundef i32 @_Z33alts_iovec_record_protocol_createP17gsec_aead_cryptermbbbPP26alts_iovec_record_protocolPPc(ptr noundef nonnull %1, i64 noundef %2, i1 noundef zeroext %3, i1 noundef zeroext %4, i1 noundef zeroext %5, ptr noundef nonnull %16, ptr noundef nonnull %8)
  %.not = icmp eq i32 %17, 0
  br i1 %.not, label %24, label %18

18:                                               ; preds = %15
  call void @llvm.lifetime.start.p0(i64 16, ptr nonnull %9) #16
  call void @_ZN4absl12lts_2024072212log_internal10LogMessageC1EPKciNS2_8ErrorTagE(ptr noundef nonnull align 8 dereferenceable(16) %9, ptr noundef nonnull @.str, i32 noundef 107) #17
  invoke void @_ZN4absl12lts_2024072212log_internal10LogMessage19CopyToEncodedBufferILNS2_10StringTypeE0EEEvSt17basic_string_viewIcSt11char_traitsIcEE(ptr noundef nonnull align 8 dereferenceable(16) %9, i64 45, ptr nonnull @.str.6)
          to label %_ZN4absl12lts_2024072212log_internal10LogMessagelsILi46EEERS2_RAT__Kc.exit unwind label %22

_ZN4absl12lts_2024072212log_internal10LogMessagelsILi46EEERS2_RAT__Kc.exit: ; preds = %18
  %19 = invoke noundef nonnull align 8 dereferenceable(16) ptr @_ZN4absl12lts_2024072212log_internal10LogMessagelsIPcTnNSt9enable_ifIXntsr4absl16HasAbslStringifyIT_EE5valueEiE4typeELi0EEERS2_RKS6_(ptr noundef nonnull align 8 dereferenceable(16) %9, ptr noundef nonnull align 8 dereferenceable(8) %8)
          to label %20 unwind label %22

20:                                               ; preds = %_ZN4absl12lts_2024072212log_internal10LogMessagelsILi46EEERS2_RAT__Kc.exit
  call void @_ZN4absl12lts_2024072212log_internal10LogMessageD1Ev(ptr noundef nonnull align 8 dereferenceable(16) %9) #19
  call void @llvm.lifetime.end.p0(i64 16, ptr nonnull %9) #16
  %21 = load ptr, ptr %8, align 8, !tbaa !37
  call void @gpr_free(ptr noundef %21)
  br label %36

22:                                               ; preds = %18, %_ZN4absl12lts_2024072212log_internal10LogMessagelsILi46EEERS2_RAT__Kc.exit
  %23 = landingpad { ptr, i32 }
          cleanup
  call void @_ZN4absl12lts_2024072212log_internal10LogMessageD1Ev(ptr noundef nonnull align 8 dereferenceable(16) %9) #19
  call void @llvm.lifetime.end.p0(i64 16, ptr nonnull %9) #16
  call void @llvm.lifetime.end.p0(i64 8, ptr nonnull %8) #16
  br label %38

24:                                               ; preds = %15
  %25 = getelementptr inbounds nuw i8, ptr %0, i64 16
  call void @grpc_slice_buffer_init(ptr noundef nonnull %25)
  %26 = call noundef i64 @_Z44alts_iovec_record_protocol_get_header_lengthv()
  %27 = getelementptr inbounds nuw i8, ptr %0, i64 256
  store i64 %26, ptr %27, align 8, !tbaa !33
  %28 = call ptr @gpr_malloc(i64 noundef %26)
  %29 = getelementptr inbounds nuw i8, ptr %0, i64 248
  store ptr %28, ptr %29, align 8, !tbaa !36
  %30 = load ptr, ptr %16, align 8, !tbaa !38
  %31 = call noundef i64 @_Z41alts_iovec_record_protocol_get_tag_lengthPK26alts_iovec_record_protocol(ptr noundef %30)
  %32 = getelementptr inbounds nuw i8, ptr %0, i64 264
  store i64 %31, ptr %32, align 8, !tbaa !39
  %33 = getelementptr inbounds nuw i8, ptr %0, i64 280
  store i64 8, ptr %33, align 8, !tbaa !11
  %34 = call ptr @gpr_malloc(i64 noundef 128)
  %35 = getelementptr inbounds nuw i8, ptr %0, i64 272
  store ptr %34, ptr %35, align 8, !tbaa !17
  br label %36

36:                                               ; preds = %24, %20
  %.1 = phi i32 [ 7, %20 ], [ 0, %24 ]
  call void @llvm.lifetime.end.p0(i64 8, ptr nonnull %8) #16
  br label %37

37:                                               ; preds = %36, %_ZN4absl12lts_2024072212log_internal10LogMessagelsILi61EEERS2_RAT__Kc.exit
  %.0 = phi i32 [ 2, %_ZN4absl12lts_2024072212log_internal10LogMessagelsILi61EEERS2_RAT__Kc.exit ], [ %.1, %36 ]
  ret i32 %.0

38:                                               ; preds = %22, %13
  %.pn = phi { ptr, i32 } [ %14, %13 ], [ %23, %22 ]
  resume { ptr, i32 } %.pn
}